target datalayout = "e-m:e-p270:32:32-p271:32:32-p272:64:64-i64:64-i128:128-f80:128-n8:16:32:64-S128"
target triple = "x86_64-pc-linux-gnu"

%"class.llvm::opt::PrecomputedOptTable" = type { %"class.llvm::opt::OptTable", %"class.llvm::ArrayRef.0" }
%"class.llvm::opt::OptTable" = type { ptr, %"class.llvm::ArrayRef", i8, i8, i8, ptr, i32, i32, i32, %"class.llvm::SmallString" }
%"class.llvm::ArrayRef" = type { ptr, i64 }
%"class.llvm::SmallString" = type { %"class.llvm::SmallVector" }
%"class.llvm::SmallVector" = type { %"class.llvm::SmallVectorImpl", %"struct.llvm::SmallVectorStorage" }
%"class.llvm::SmallVectorImpl" = type { %"class.llvm::SmallVectorTemplateBase" }
%"class.llvm::SmallVectorTemplateBase" = type { %"class.llvm::SmallVectorTemplateCommon" }
%"class.llvm::SmallVectorTemplateCommon" = type { %"class.llvm::SmallVectorBase" }
%"class.llvm::SmallVectorBase" = type { ptr, i64, i64 }
%"struct.llvm::SmallVectorStorage" = type { [8 x i8] }
%"class.llvm::ArrayRef.0" = type { ptr, i64 }
%"struct.std::array" = type { [1 x %"struct.std::pair"] }
%"struct.std::pair" = type { %"struct.std::array.1", ptr }
%"struct.std::array.1" = type { [2 x i32] }
%"struct.llvm::opt::OptTable::Info" = type { %"class.llvm::ArrayRef.0", %"class.llvm::StringLiteral", ptr, %"struct.std::array", ptr, i32, i8, i8, i32, i32, i16, i16, ptr, ptr }
%"class.llvm::StringLiteral" = type { %"class.llvm::StringRef" }
%"class.llvm::StringRef" = type { ptr, i64 }

@_ZL11PrefixTable = internal constant %"class.llvm::ArrayRef.0" { ptr @_ZL16PrefixTable_init, i64 3 }, align 8
@_ZTVN12_GLOBAL__N_114DriverOptTableE = internal unnamed_addr constant { [5 x ptr] } { [5 x ptr] [ptr null, ptr null, ptr @_ZNK4llvm3opt19PrecomputedOptTable16getPrefixesUnionEv, ptr @_ZN12_GLOBAL__N_114DriverOptTableD2Ev, ptr @_ZN12_GLOBAL__N_114DriverOptTableD0Ev] }, align 8
@_ZTVN4llvm3opt19PrecomputedOptTableE = linkonce_odr unnamed_addr constant { [5 x ptr] } { [5 x ptr] [ptr null, ptr null, ptr @_ZNK4llvm3opt19PrecomputedOptTable16getPrefixesUnionEv, ptr @_ZN4llvm3opt19PrecomputedOptTableD2Ev, ptr @_ZN4llvm3opt19PrecomputedOptTableD0Ev] }, comdat, align 8

; Function Attrs: mustprogress nounwind uwtable
define linkonce_odr hidden void @_ZN4llvm3opt19PrecomputedOptTableC2ENS_8ArrayRefINS0_8OptTable4InfoEEENS2_INS_13StringLiteralEEEb(ptr noundef nonnull align 8 dereferenceable(104) %0, ptr %1, i64 %2, ptr %3, i64 %4, i1 noundef zeroext %5) unnamed_addr #0 comdat align 2 {
  %7 = alloca %"class.llvm::ArrayRef", align 8
  %8 = alloca %"class.llvm::ArrayRef.0", align 8
  %9 = alloca ptr, align 8
  %10 = alloca i8, align 1
  %11 = alloca %"class.llvm::ArrayRef", align 8
  %12 = getelementptr inbounds nuw { ptr, i64 }, ptr %7, i32 0, i32 0
  store ptr %1, ptr %12, align 8
  %13 = getelementptr inbounds nuw { ptr, i64 }, ptr %7, i32 0, i32 1
  store i64 %2, ptr %13, align 8
  %14 = getelementptr inbounds nuw { ptr, i64 }, ptr %8, i32 0, i32 0
  store ptr %3, ptr %14, align 8
  %15 = getelementptr inbounds nuw { ptr, i64 }, ptr %8, i32 0, i32 1
  store i64 %4, ptr %15, align 8
  store ptr %0, ptr %9, align 8
  %16 = zext i1 %5 to i8
  store i8 %16, ptr %10, align 1
  %17 = load ptr, ptr %9, align 8
  call void @llvm.memcpy.p0.p0.i64(ptr align 8 %11, ptr align 8 %7, i64 16, i1 false)
  %18 = load i8, ptr %10, align 1
  %19 = trunc i8 %18 to i1
  %20 = getelementptr inbounds nuw { ptr, i64 }, ptr %11, i32 0, i32 0
  %21 = load ptr, ptr %20, align 8
  %22 = getelementptr inbounds nuw { ptr, i64 }, ptr %11, i32 0, i32 1
  %23 = load i64, ptr %22, align 8
  call void @_ZN4llvm3opt8OptTableC2ENS_8ArrayRefINS1_4InfoEEEb(ptr noundef nonnull align 8 dereferenceable(88) %17, ptr %21, i64 %23, i1 noundef zeroext %19)
  store ptr getelementptr inbounds inrange(-16, 24) ({ [5 x ptr] }, ptr @_ZTVN4llvm3opt19PrecomputedOptTableE, i32 0, i32 0, i32 2), ptr %17, align 8
  %24 = getelementptr inbounds nuw %"class.llvm::opt::PrecomputedOptTable", ptr %17, i32 0, i32 1
  call void @llvm.memcpy.p0.p0.i64(ptr align 8 %24, ptr align 8 %8, i64 16, i1 false)
  call void @_ZN4llvm3opt8OptTable16buildPrefixCharsEv(ptr noundef nonnull align 8 dereferenceable(88) %17)
  ret void
}

; Function Attrs: mustprogress nounwind uwtable
define linkonce_odr hidden void @_ZN4llvm8ArrayRefINS_3opt8OptTable4InfoEEC2ILm3436EEERAT__KS3_(ptr noundef nonnull align 8 dereferenceable(16) %0, ptr noundef nonnull align 8 dereferenceable(357344) %1) unnamed_addr #0 comdat align 2 {
  %3 = alloca ptr, align 8
  %4 = alloca ptr, align 8
  store ptr %0, ptr %3, align 8
  store ptr %1, ptr %4, align 8
  %5 = load ptr, ptr %3, align 8
  %6 = getelementptr inbounds nuw %"class.llvm::ArrayRef", ptr %5, i32 0, i32 0
  %7 = load ptr, ptr %4, align 8
  %8 = getelementptr inbounds [3436 x %"struct.llvm::opt::OptTable::Info"], ptr %7, i64 0, i64 0
  store ptr %8, ptr %6, align 8
  %9 = getelementptr inbounds nuw %"class.llvm::ArrayRef", ptr %5, i32 0, i32 1
  store i64 3436, ptr %9, align 8
  ret void
}

; Function Attrs: mustprogress nounwind uwtable
define internal void @_ZN12_GLOBAL__N_114DriverOptTableC2Ev(ptr noundef nonnull align 8 dereferenceable(104) %0) unnamed_addr #0 align 2 {
  %2 = alloca ptr, align 8
  %3 = alloca %"class.llvm::ArrayRef", align 8
  %4 = alloca %"class.llvm::ArrayRef.0", align 8
  store ptr %0, ptr %2, align 8
  %5 = load ptr, ptr %2, align 8
  call void @_ZN4llvm8ArrayRefINS_3opt8OptTable4InfoEEC2ILm3436EEERAT__KS3_(ptr noundef nonnull align 8 dereferenceable(16) %3, ptr noundef nonnull align 8 dereferenceable(357344) @_ZL9InfoTable)
  call void @llvm.memcpy.p0.p0.i64(ptr align 8 %4, ptr align 8 @_ZL11PrefixTable, i64 16, i1 false)
  %6 = getelementptr inbounds nuw { ptr, i64 }, ptr %3, i32 0, i32 0
  %7 = load ptr, ptr %6, align 8
  %8 = getelementptr inbounds nuw { ptr, i64 }, ptr %3, i32 0, i32 1
  %9 = load i64, ptr %8, align 8
  %10 = getelementptr inbounds nuw { ptr, i64 }, ptr %4, i32 0, i32 0
  %11 = load ptr, ptr %10, align 8
  %12 = getelementptr inbounds nuw { ptr, i64 }, ptr %4, i32 0, i32 1
  %13 = load i64, ptr %12, align 8
  call void @_ZN4llvm3opt19PrecomputedOptTableC2ENS_8ArrayRefINS0_8OptTable4InfoEEENS2_INS_13StringLiteralEEEb(ptr noundef nonnull align 8 dereferenceable(104) %5, ptr %7, i64 %9, ptr %11, i64 %13, i1 noundef zeroext false)
  store ptr getelementptr inbounds inrange(-16, 24) ({ [5 x ptr] }, ptr @_ZTVN12_GLOBAL__N_114DriverOptTableE, i32 0, i32 0, i32 2), ptr %5, align 8
  ret void
}