; Function Attrs: mustprogress nounwind uwtable
define internal fastcc void @_ZN12_GLOBAL__N_114DriverOptTableC2Ev() unnamed_addr #0 align 2 {
  tail call void @_ZN4llvm3opt8OptTableC2ENS_8ArrayRefINS1_4InfoEEEb(ptr noundef nonnull align 8 dereferenceable(88) @_ZZN5clang6driver17getDriverOptTableEvE5Table, ptr nonnull @_ZL9InfoTable, i64 3436, i1 noundef zeroext false) #5
  store ptr getelementptr inbounds nuw inrange(-16, 24) (i8, ptr @_ZTVN4llvm3opt19PrecomputedOptTableE, i64 16), ptr @_ZZN5clang6driver17getDriverOptTableEvE5Table, align 8
  store ptr @_ZL16PrefixTable_init, ptr getelementptr inbounds nuw (i8, ptr @_ZZN5clang6driver17getDriverOptTableEvE5Table, i64 88), align 8
  store i64 3, ptr getelementptr inbounds nuw (i8, ptr @_ZZN5clang6driver17getDriverOptTableEvE5Table, i64 96), align 8
  tail call void @_ZN4llvm3opt8OptTable16buildPrefixCharsEv(ptr noundef nonnull align 8 dereferenceable(88) @_ZZN5clang6driver17getDriverOptTableEvE5Table) #5
  store ptr getelementptr inbounds nuw inrange(-16, 24) (i8, ptr @_ZTVN12_GLOBAL__N_114DriverOptTableE, i64 16), ptr @_ZZN5clang6driver17getDriverOptTableEvE5Table, align 8
  ret void
}